; Function Attrs: nounwind uwtable
define internal noundef i32 @property_set__name__(ptr noundef captures(none) %0, ptr noundef %1, ptr readnone captures(none) %2) #0 {
  %4 = getelementptr inbounds nuw i8, ptr %0, i64 48
  %5 = load ptr, ptr %4, align 8, !tbaa !30
  %.not.i.i = icmp eq ptr %1, null
  br i1 %.not.i.i, label %_Py_XNewRef.exit, label %6

6:                                                ; preds = %3
  %7 = load i32, ptr %1, align 8, !tbaa !16
  %8 = icmp slt i32 %7, 0
  br i1 %8, label %_Py_XNewRef.exit, label %9

9:                                                ; preds = %6
  %10 = add nuw i32 %7, 1
  store i32 %10, ptr %1, align 8, !tbaa !16
  br label %_Py_XNewRef.exit

_Py_XNewRef.exit:                                 ; preds = %3, %6, %9
  store ptr %1, ptr %4, align 8, !tbaa !30
  %.not.i = icmp eq ptr %5, null
  br i1 %.not.i, label %Py_XDECREF.exit, label %11

11:                                               ; preds = %_Py_XNewRef.exit
  %12 = load i32, ptr %5, align 8, !tbaa !16
  %.not.i.i6 = icmp sgt i32 %12, -1
  br i1 %.not.i.i6, label %13, label %Py_XDECREF.exit

13:                                               ; preds = %11
  %14 = add nsw i32 %12, -1
  store i32 %14, ptr %5, align 8, !tbaa !16
  %15 = icmp eq i32 %14, 0
  br i1 %15, label %16, label %Py_XDECREF.exit

16:                                               ; preds = %13
  tail call void @_Py_Dealloc(ptr noundef nonnull %5) #9
  br label %Py_XDECREF.exit

Py_XDECREF.exit:                                  ; preds = %_Py_XNewRef.exit, %11, %13, %16
  ret i32 0
}